; Function Attrs: mustprogress uwtable
define hidden void @_ZN20bit_blaster_rewriter7cleanupEv(ptr nocapture noundef nonnull readonly align 8 dereferenceable(8) %this) local_unnamed_addr #3 align 2 {
entry:
  %0 = load ptr, ptr %this, align 8
  tail call void @_ZN13rewriter_core7cleanupEv(ptr noundef nonnull align 8 dereferenceable(144) %0)
  %m_bindings.i = getelementptr inbounds i8, ptr %0, i64 160
  %1 = load ptr, ptr %m_bindings.i, align 8
  %tobool.not.i.i.i = icmp eq ptr %1, null
  br i1 %tobool.not.i.i.i, label %_ZN6vectorIP4exprLb0EjE8finalizeEv.exit.i, label %if.then.i.i.i

if.then.i.i.i:                                    ; preds = %entry
  %add.ptr.i.i.i.i = getelementptr inbounds i8, ptr %1, i64 -8
  tail call void @_ZN6memory10deallocateEPv(ptr noundef nonnull %add.ptr.i.i.i.i)
  br label %_ZN6vectorIP4exprLb0EjE8finalizeEv.exit.i

_ZN6vectorIP4exprLb0EjE8finalizeEv.exit.i:        ; preds = %if.then.i.i.i, %entry
  store ptr null, ptr %m_bindings.i, align 8
  %m_shifter.i = getelementptr inbounds i8, ptr %0, i64 168
  tail call void @_ZN13rewriter_core7cleanupEv(ptr noundef nonnull align 8 dereferenceable(144) %m_shifter.i)
  %m_shifts.i = getelementptr inbounds i8, ptr %0, i64 528
  %2 = load ptr, ptr %m_shifts.i, align 8
  %tobool.not.i.i1.i = icmp eq ptr %2, null
  br i1 %tobool.not.i.i1.i, label %_ZN12rewriter_tplI20blaster_rewriter_cfgE7cleanupEv.exit, label %if.then.i.i2.i

if.then.i.i2.i:                                   ; preds = %_ZN6vectorIP4exprLb0EjE8finalizeEv.exit.i
  %add.ptr.i.i.i3.i = getelementptr inbounds i8, ptr %2, i64 -8
  tail call void @_ZN6memory10deallocateEPv(ptr noundef nonnull %add.ptr.i.i.i3.i)
  br label %_ZN12rewriter_tplI20blaster_rewriter_cfgE7cleanupEv.exit

_ZN12rewriter_tplI20blaster_rewriter_cfgE7cleanupEv.exit: ; preds = %_ZN6vectorIP4exprLb0EjE8finalizeEv.exit.i, %if.then.i.i2.i
  store ptr null, ptr %m_shifts.i, align 8
  %m_inv_shifter.i = getelementptr inbounds i8, ptr %0, i64 328
  tail call void @_ZN13rewriter_core7cleanupEv(ptr noundef nonnull align 8 dereferenceable(144) %m_inv_shifter.i)
  ret void
}